; Function Attrs: mustprogress uwtable
define void @_ZN6icu_7525UnicodeNameTransliteratorC2EPNS_13UnicodeFilterE(ptr noundef nonnull align 8 dereferenceable(84) %this, ptr noundef %adoptedFilter) unnamed_addr #1 align 2 personality ptr @__gxx_personality_v0 {
entry:
  %ref.tmp = alloca %"class.icu_75::UnicodeString", align 8
  %agg.tmp = alloca %"class.icu_75::ConstChar16Ptr", align 8
  store ptr @.str, ptr %agg.tmp, align 8
  invoke void @_ZN6icu_7513UnicodeStringC1EaNS_14ConstChar16PtrEi(ptr noundef nonnull align 8 dereferenceable(64) %ref.tmp, i8 noundef signext 1, ptr noundef nonnull %agg.tmp, i32 noundef 8)
          to label %invoke.cont unwind label %lpad

invoke.cont:                                      ; preds = %entry
  invoke void @_ZN6icu_7514TransliteratorC2ERKNS_13UnicodeStringEPNS_13UnicodeFilterE(ptr noundef nonnull align 8 dereferenceable(84) %this, ptr noundef nonnull align 8 dereferenceable(64) %ref.tmp, ptr noundef %adoptedFilter)
          to label %invoke.cont3 unwind label %lpad2

invoke.cont3:                                     ; preds = %invoke.cont
  call void @_ZN6icu_7513UnicodeStringD1Ev(ptr noundef nonnull align 8 dereferenceable(64) %ref.tmp) #7
  %0 = load ptr, ptr %agg.tmp, align 8
  call void asm sideeffect "", "rm,~{memory},~{dirflag},~{fpsr},~{flags}"(ptr %0) #7, !srcloc !4
  store ptr getelementptr inbounds ({ [19 x ptr] }, ptr @_ZTVN6icu_7525UnicodeNameTransliteratorE, i64 0, i32 0, i64 2), ptr %this, align 8
  ret void

lpad:                                             ; preds = %entry
  %1 = landingpad { ptr, i32 }
          cleanup
  br label %ehcleanup

lpad2:                                            ; preds = %invoke.cont
  %2 = landingpad { ptr, i32 }
          cleanup
  call void @_ZN6icu_7513UnicodeStringD1Ev(ptr noundef nonnull align 8 dereferenceable(64) %ref.tmp) #7
  br label %ehcleanup

ehcleanup:                                        ; preds = %lpad2, %lpad
  %.pn = phi { ptr, i32 } [ %2, %lpad2 ], [ %1, %lpad ]
  %3 = load ptr, ptr %agg.tmp, align 8
  call void asm sideeffect "", "rm,~{memory},~{dirflag},~{fpsr},~{flags}"(ptr %3) #7, !srcloc !4
  resume { ptr, i32 } %.pn
}